target datalayout = "e-m:e-p270:32:32-p271:32:32-p272:64:64-i64:64-i128:128-f80:128-n8:16:32:64-S128"
target triple = "x86_64-unknown-linux-gnu"

%"class.absl::lts_20230802::Status" = type { i64 }
%"class.std::unique_ptr" = type { %"struct.std::__uniq_ptr_data" }
%"struct.std::__uniq_ptr_data" = type { %"class.std::__uniq_ptr_impl" }
%"class.std::__uniq_ptr_impl" = type { %"class.std::tuple" }
%"class.std::tuple" = type { %"struct.std::_Tuple_impl" }
%"struct.std::_Tuple_impl" = type { %"struct.std::_Head_base.3" }
%"struct.std::_Head_base.3" = type { ptr }
%"class.grpc_core::XdsClient::ChannelState" = type { %"class.grpc_core::DualRefCounted", %"class.grpc_core::WeakRefCountedPtr", ptr, %"class.std::unique_ptr", i8, %"class.std::unique_ptr.4", %"class.std::unique_ptr.10", %"class.std::map", %"class.absl::lts_20230802::Status" }
%"class.grpc_core::DualRefCounted" = type { %"class.grpc_core::Orphanable", %"struct.std::atomic.0" }
%"class.grpc_core::Orphanable" = type { ptr }
%"struct.std::atomic.0" = type { %"struct.std::__atomic_base.1" }
%"struct.std::__atomic_base.1" = type { i64 }
%"class.grpc_core::WeakRefCountedPtr" = type { ptr }
%"class.std::unique_ptr.4" = type { %"struct.std::__uniq_ptr_data.5" }
%"struct.std::__uniq_ptr_data.5" = type { %"class.std::__uniq_ptr_impl.6" }
%"class.std::__uniq_ptr_impl.6" = type { %"class.std::tuple.7" }
%"class.std::tuple.7" = type { %"struct.std::_Tuple_impl.8" }
%"struct.std::_Tuple_impl.8" = type { %"struct.std::_Head_base.9" }
%"struct.std::_Head_base.9" = type { ptr }
%"class.std::unique_ptr.10" = type { %"struct.std::__uniq_ptr_data.11" }
%"struct.std::__uniq_ptr_data.11" = type { %"class.std::__uniq_ptr_impl.12" }
%"class.std::__uniq_ptr_impl.12" = type { %"class.std::tuple.13" }
%"class.std::tuple.13" = type { %"struct.std::_Tuple_impl.14" }
%"struct.std::_Tuple_impl.14" = type { %"struct.std::_Head_base.15" }
%"struct.std::_Head_base.15" = type { ptr }
%"class.std::map" = type { %"class.std::_Rb_tree" }
%"class.std::_Rb_tree" = type { %"struct.std::_Rb_tree<const grpc_core::XdsResourceType *, std::pair<const grpc_core::XdsResourceType *const, std::__cxx11::basic_string<char>>, std::_Select1st<std::pair<const grpc_core::XdsResourceType *const, std::__cxx11::basic_string<char>>>, std::less<const grpc_core::XdsResourceType *>>::_Rb_tree_impl" }
%"struct.std::_Rb_tree<const grpc_core::XdsResourceType *, std::pair<const grpc_core::XdsResourceType *const, std::__cxx11::basic_string<char>>, std::_Select1st<std::pair<const grpc_core::XdsResourceType *const, std::__cxx11::basic_string<char>>>, std::less<const grpc_core::XdsResourceType *>>::_Rb_tree_impl" = type { %"struct.std::_Rb_tree_key_compare", %"struct.std::_Rb_tree_header" }
%"struct.std::_Rb_tree_key_compare" = type { %"struct.std::less" }
%"struct.std::less" = type { i8 }
%"struct.std::_Rb_tree_header" = type { %"struct.std::_Rb_tree_node_base", i64 }
%"struct.std::_Rb_tree_node_base" = type { i32, ptr, ptr, ptr }

; Function Attrs: mustprogress nounwind uwtable
define linkonce_odr noundef nonnull align 8 dereferenceable(8) ptr @_ZNSt10_Head_baseILm0EPN9grpc_core19XdsTransportFactory12XdsTransportELb0EE7_M_headERKS4_(ptr noundef nonnull align 8 dereferenceable(8) %__b) #5 comdat align 2 {
entry:
  %__b.addr = alloca ptr, align 8
  store ptr %__b, ptr %__b.addr, align 8
  %0 = load ptr, ptr %__b.addr, align 8
  %_M_head_impl = getelementptr inbounds %"struct.std::_Head_base.3", ptr %0, i32 0, i32 0
  ret ptr %_M_head_impl
}

; Function Attrs: mustprogress nounwind uwtable
define linkonce_odr noundef nonnull align 8 dereferenceable(8) ptr @_ZNSt11_Tuple_implILm0EJPN9grpc_core19XdsTransportFactory12XdsTransportENS0_16OrphanableDeleteEEE7_M_headERKS5_(ptr noundef nonnull align 8 dereferenceable(8) %__t) #5 comdat align 2 {
entry:
  %__t.addr = alloca ptr, align 8
  store ptr %__t, ptr %__t.addr, align 8
  %0 = load ptr, ptr %__t.addr, align 8
  %call = call noundef nonnull align 8 dereferenceable(8) ptr @_ZNSt10_Head_baseILm0EPN9grpc_core19XdsTransportFactory12XdsTransportELb0EE7_M_headERKS4_(ptr noundef nonnull align 8 dereferenceable(8) %0) #3
  ret ptr %call
}

; Function Attrs: mustprogress nounwind uwtable
define linkonce_odr noundef nonnull align 8 dereferenceable(8) ptr @_ZSt12__get_helperILm0EPN9grpc_core19XdsTransportFactory12XdsTransportEJNS0_16OrphanableDeleteEEERKT0_RKSt11_Tuple_implIXT_EJS5_DpT1_EE(ptr noundef nonnull align 8 dereferenceable(8) %__t) #5 comdat {
entry:
  %__t.addr = alloca ptr, align 8
  store ptr %__t, ptr %__t.addr, align 8
  %0 = load ptr, ptr %__t.addr, align 8
  %call = call noundef nonnull align 8 dereferenceable(8) ptr @_ZNSt11_Tuple_implILm0EJPN9grpc_core19XdsTransportFactory12XdsTransportENS0_16OrphanableDeleteEEE7_M_headERKS5_(ptr noundef nonnull align 8 dereferenceable(8) %0) #3
  ret ptr %call
}

; Function Attrs: mustprogress nounwind uwtable
define linkonce_odr noundef nonnull align 8 dereferenceable(8) ptr @_ZSt3getILm0EJPN9grpc_core19XdsTransportFactory12XdsTransportENS0_16OrphanableDeleteEEERKNSt13tuple_elementIXT_ESt5tupleIJDpT0_EEE4typeERKS9_(ptr noundef nonnull align 8 dereferenceable(8) %__t) #5 comdat {
entry:
  %__t.addr = alloca ptr, align 8
  store ptr %__t, ptr %__t.addr, align 8
  %0 = load ptr, ptr %__t.addr, align 8
  %call = call noundef nonnull align 8 dereferenceable(8) ptr @_ZSt12__get_helperILm0EPN9grpc_core19XdsTransportFactory12XdsTransportEJNS0_16OrphanableDeleteEEERKT0_RKSt11_Tuple_implIXT_EJS5_DpT1_EE(ptr noundef nonnull align 8 dereferenceable(8) %0) #3
  ret ptr %call
}

; Function Attrs: mustprogress nounwind uwtable
define linkonce_odr noundef ptr @_ZNKSt15__uniq_ptr_implIN9grpc_core19XdsTransportFactory12XdsTransportENS0_16OrphanableDeleteEE6_M_ptrEv(ptr noundef nonnull align 8 dereferenceable(8) %this) #5 comdat align 2 {
entry:
  %this.addr = alloca ptr, align 8
  store ptr %this, ptr %this.addr, align 8
  %this1 = load ptr, ptr %this.addr, align 8
  %_M_t = getelementptr inbounds %"class.std::__uniq_ptr_impl", ptr %this1, i32 0, i32 0
  %call = call noundef nonnull align 8 dereferenceable(8) ptr @_ZSt3getILm0EJPN9grpc_core19XdsTransportFactory12XdsTransportENS0_16OrphanableDeleteEEERKNSt13tuple_elementIXT_ESt5tupleIJDpT0_EEE4typeERKS9_(ptr noundef nonnull align 8 dereferenceable(8) %_M_t) #3
  %0 = load ptr, ptr %call, align 8
  ret ptr %0
}

; Function Attrs: mustprogress nounwind uwtable
define linkonce_odr noundef ptr @_ZNKSt10unique_ptrIN9grpc_core19XdsTransportFactory12XdsTransportENS0_16OrphanableDeleteEE3getEv(ptr noundef nonnull align 8 dereferenceable(8) %this) #5 comdat align 2 {
entry:
  %this.addr = alloca ptr, align 8
  store ptr %this, ptr %this.addr, align 8
  %this1 = load ptr, ptr %this.addr, align 8
  %_M_t = getelementptr inbounds %"class.std::unique_ptr", ptr %this1, i32 0, i32 0
  %call = call noundef ptr @_ZNKSt15__uniq_ptr_implIN9grpc_core19XdsTransportFactory12XdsTransportENS0_16OrphanableDeleteEE6_M_ptrEv(ptr noundef nonnull align 8 dereferenceable(8) %_M_t) #3
  ret ptr %call
}

; Function Attrs: mustprogress nounwind uwtable
define linkonce_odr noundef ptr @_ZNKSt10unique_ptrIN9grpc_core19XdsTransportFactory12XdsTransportENS0_16OrphanableDeleteEEptEv(ptr noundef nonnull align 8 dereferenceable(8) %this) #5 comdat align 2 {
entry:
  %this.addr = alloca ptr, align 8
  store ptr %this, ptr %this.addr, align 8
  %this1 = load ptr, ptr %this.addr, align 8
  %call = call noundef ptr @_ZNKSt10unique_ptrIN9grpc_core19XdsTransportFactory12XdsTransportENS0_16OrphanableDeleteEE3getEv(ptr noundef nonnull align 8 dereferenceable(8) %this1) #3
  ret ptr %call
}

; Function Attrs: mustprogress uwtable
define void @_ZN9grpc_core9XdsClient12ChannelState12ResetBackoffEv(ptr noundef nonnull align 8 dereferenceable(120) %this) #4 align 2 {
entry:
  %this.addr = alloca ptr, align 8
  store ptr %this, ptr %this.addr, align 8
  %this1 = load ptr, ptr %this.addr, align 8
  %transport_ = getelementptr inbounds %"class.grpc_core::XdsClient::ChannelState", ptr %this1, i32 0, i32 3
  %call = call noundef ptr @_ZNKSt10unique_ptrIN9grpc_core19XdsTransportFactory12XdsTransportENS0_16OrphanableDeleteEEptEv(ptr noundef nonnull align 8 dereferenceable(8) %transport_) #3
  %vtable = load ptr, ptr %call, align 8
  %vfn = getelementptr inbounds ptr, ptr %vtable, i64 4
  %0 = load ptr, ptr %vfn, align 8
  call void %0(ptr noundef nonnull align 8 dereferenceable(16) %call)
  ret void
}