; Function Attrs: mustprogress uwtable
define void @_ZN9grpc_core9XdsClient12ChannelState12ResetBackoffEv(ptr nocapture noundef nonnull readonly align 8 dereferenceable(120) %this) local_unnamed_addr #3 align 2 {
entry:
  %transport_ = getelementptr inbounds i8, ptr %this, i64 32
  %0 = load ptr, ptr %transport_, align 8
  %vtable = load ptr, ptr %0, align 8
  %vfn = getelementptr inbounds i8, ptr %vtable, i64 32
  %1 = load ptr, ptr %vfn, align 8
  tail call void %1(ptr noundef nonnull align 8 dereferenceable(16) %0)
  ret void
}